target datalayout = "e-m:e-p270:32:32-p271:32:32-p272:64:64-i64:64-i128:128-f80:128-n8:16:32:64-S128"
target triple = "x86_64-pc-linux-gnu"

%struct._GtkTreeIter = type { i32, ptr, ptr, ptr }
%struct.sview_job_info_t = type { i32, %struct._GtkTreeIter, i8, i32, ptr, ptr, i32, ptr, i32, ptr, ptr, ptr, ptr, ptr, ptr, ptr }
%struct.job_info = type { ptr, i64, ptr, ptr, i32, ptr, i32, i32, i32, ptr, i32, ptr, i16, ptr, i64, i16, ptr, ptr, ptr, ptr, ptr, ptr, ptr, ptr, i16, i16, i16, double, i16, i32, i32, i32, ptr, ptr, i64, i32, ptr, i32, i64, i64, ptr, ptr, i32, ptr, ptr, ptr, ptr, i64, ptr, i64, ptr, i32, ptr, ptr, i32, i32, ptr, i32, i32, ptr, ptr, i32, i64, ptr, i16, ptr, i32, i32, ptr, ptr, ptr, ptr, ptr, i32, ptr, i16, i16, i16, i16, i16, i32, i32, i32, i16, ptr, ptr, i64, i16, i32, i64, i64, i64, i32, ptr, ptr, i32, ptr, i8, ptr, ptr, i32, i16, i64, i16, ptr, ptr, ptr, ptr, i16, i32, i16, i16, i64, i16, ptr, i32, ptr, ptr, ptr, i16, i64, i64, ptr, i32, i32, i16, ptr, ptr, ptr, ptr, ptr, ptr, ptr, ptr, i32, ptr, i32, ptr, ptr }

@last_model = internal global ptr null, align 8

; Function Attrs: nounwind uwtable
define internal void @_append_job_record(ptr noundef %0, ptr noundef %1) #0 {
  %3 = alloca ptr, align 8
  %4 = alloca ptr, align 8
  store ptr %0, ptr %3, align 8
  store ptr %1, ptr %4, align 8
  %5 = load ptr, ptr %4, align 8
  %6 = load ptr, ptr %3, align 8
  %7 = getelementptr inbounds nuw %struct.sview_job_info_t, ptr %6, i32 0, i32 1
  call void @gtk_tree_store_append(ptr noundef %5, ptr noundef %7, ptr noundef null)
  %8 = load ptr, ptr %4, align 8
  %9 = load ptr, ptr %3, align 8
  %10 = getelementptr inbounds nuw %struct.sview_job_info_t, ptr %9, i32 0, i32 1
  %11 = load ptr, ptr %3, align 8
  %12 = getelementptr inbounds nuw %struct.sview_job_info_t, ptr %11, i32 0, i32 8
  %13 = load i32, ptr %12, align 8
  call void (ptr, ptr, ...) @gtk_tree_store_set(ptr noundef %8, ptr noundef %10, i32 noundef 0, i32 noundef %13, i32 noundef -1)
  %14 = load ptr, ptr %3, align 8
  %15 = load ptr, ptr %4, align 8
  call void @_update_job_record(ptr noundef %14, ptr noundef %15, ptr noundef null, i1 noundef zeroext true, i1 noundef zeroext false)
  ret void
}

; Function Attrs: inlinehint nounwind willreturn memory(read) uwtable
define available_externally i32 @atoi(ptr noundef nonnull %0) #7 {
  %2 = alloca ptr, align 8
  store ptr %0, ptr %2, align 8
  %3 = load ptr, ptr %2, align 8
  %4 = call i64 @strtol(ptr noundef %3, ptr noundef null, i32 noundef 10) #11
  %5 = trunc i64 %4 to i32
  ret i32 %5
}

; Function Attrs: nounwind uwtable
define internal void @_update_info_job(ptr noundef %0, ptr noundef %1) #0 {
  %3 = alloca ptr, align 8
  %4 = alloca ptr, align 8
  %5 = alloca ptr, align 8
  %6 = alloca i32, align 4
  %7 = alloca ptr, align 8
  %8 = alloca ptr, align 8
  %9 = alloca ptr, align 8
  %10 = alloca ptr, align 8
  %11 = alloca ptr, align 8
  %12 = alloca i32, align 4
  store ptr %0, ptr %3, align 8
  store ptr %1, ptr %4, align 8
  call void @llvm.lifetime.start.p0(i64 8, ptr %5) #11
  %13 = load ptr, ptr %4, align 8
  %14 = call ptr @gtk_tree_view_get_model(ptr noundef %13)
  store ptr %14, ptr %5, align 8
  call void @llvm.lifetime.start.p0(i64 4, ptr %6) #11
  store i32 0, ptr %6, align 4
  call void @llvm.lifetime.start.p0(i64 8, ptr %7) #11
  store ptr null, ptr %7, align 8
  call void @llvm.lifetime.start.p0(i64 8, ptr %8) #11
  store ptr null, ptr %8, align 8
  call void @llvm.lifetime.start.p0(i64 8, ptr %9) #11
  store ptr null, ptr %9, align 8
  %15 = load ptr, ptr %5, align 8
  call void @set_for_update(ptr noundef %15, i32 noundef 91)
  %16 = load ptr, ptr %3, align 8
  %17 = call ptr @list_iterator_create(ptr noundef %16)
  store ptr %17, ptr %8, align 8
  br label %18

18:                                               ; preds = %99, %79, %2
  %19 = load ptr, ptr %8, align 8
  %20 = call ptr @list_next(ptr noundef %19)
  store ptr %20, ptr %9, align 8
  %21 = icmp ne ptr %20, null
  br i1 %21, label %22, label %100

22:                                               ; preds = %18
  %23 = load ptr, ptr %9, align 8
  %24 = getelementptr inbounds nuw %struct.sview_job_info_t, ptr %23, i32 0, i32 5
  %25 = load ptr, ptr %24, align 8
  store ptr %25, ptr %7, align 8
  %26 = load ptr, ptr @last_model, align 8
  %27 = load ptr, ptr %5, align 8
  %28 = icmp ne ptr %26, %27
  br i1 %28, label %29, label %32

29:                                               ; preds = %22
  %30 = load ptr, ptr %9, align 8
  %31 = getelementptr inbounds nuw %struct.sview_job_info_t, ptr %30, i32 0, i32 2
  store i8 0, ptr %31, align 8
  br label %32

32:                                               ; preds = %29, %22
  %33 = load ptr, ptr %9, align 8
  %34 = getelementptr inbounds nuw %struct.sview_job_info_t, ptr %33, i32 0, i32 2
  %35 = load i8, ptr %34, align 8, !range !18, !noundef !19
  %36 = trunc i8 %35 to i1
  br i1 %36, label %37, label %82

37:                                               ; preds = %32
  call void @llvm.lifetime.start.p0(i64 8, ptr %10) #11
  store ptr null, ptr %10, align 8
  call void @llvm.lifetime.start.p0(i64 8, ptr %11) #11
  store ptr null, ptr %11, align 8
  %38 = load ptr, ptr %5, align 8
  %39 = load ptr, ptr %9, align 8
  %40 = getelementptr inbounds nuw %struct.sview_job_info_t, ptr %39, i32 0, i32 1
  call void (ptr, ptr, ...) @gtk_tree_model_get(ptr noundef %38, ptr noundef %40, i32 noundef 36, ptr noundef %10, i32 noundef -1)
  %41 = load ptr, ptr %10, align 8
  %42 = icmp ne ptr %41, null
  br i1 %42, label %44, label %43

43:                                               ; preds = %37
  store i32 2, ptr %12, align 4
  br label %79, !llvm.loop !31

44:                                               ; preds = %37
  %45 = load ptr, ptr %10, align 8
  %46 = call ptr @strchr(ptr noundef %45, i32 noundef 40) #14
  store ptr %46, ptr %11, align 8
  %47 = load ptr, ptr %11, align 8
  %48 = icmp ne ptr %47, null
  br i1 %48, label %49, label %52

49:                                               ; preds = %44
  %50 = load ptr, ptr %11, align 8
  %51 = getelementptr inbounds nuw i8, ptr %50, i32 1
  store ptr %51, ptr %11, align 8
  br label %54

52:                                               ; preds = %44
  %53 = load ptr, ptr %10, align 8
  store ptr %53, ptr %11, align 8
  br label %54

54:                                               ; preds = %52, %49
  %55 = load ptr, ptr %11, align 8
  %56 = call i32 @atoi(ptr noundef %55) #14
  store i32 %56, ptr %6, align 4
  %57 = load ptr, ptr %10, align 8
  call void @g_free(ptr noundef %57)
  %58 = load i32, ptr %6, align 4
  %59 = load ptr, ptr %7, align 8
  %60 = getelementptr inbounds nuw %struct.job_info, ptr %59, i32 0, i32 58
  %61 = load i32, ptr %60, align 4
  %62 = icmp ne i32 %58, %61
  br i1 %62, label %63, label %78

63:                                               ; preds = %54
  %64 = load i32, ptr %6, align 4
  %65 = load ptr, ptr %7, align 8
  %66 = getelementptr inbounds nuw %struct.job_info, ptr %65, i32 0, i32 6
  %67 = load i32, ptr %66, align 8
  %68 = icmp ne i32 %64, %67
  br i1 %68, label %69, label %78

69:                                               ; preds = %63
  %70 = load i32, ptr %6, align 4
  %71 = load ptr, ptr %7, align 8
  %72 = getelementptr inbounds nuw %struct.job_info, ptr %71, i32 0, i32 55
  %73 = load i32, ptr %72, align 4
  %74 = icmp ne i32 %70, %73
  br i1 %74, label %75, label %78

75:                                               ; preds = %69
  %76 = load ptr, ptr %9, align 8
  %77 = getelementptr inbounds nuw %struct.sview_job_info_t, ptr %76, i32 0, i32 2
  store i8 0, ptr %77, align 8
  br label %78

78:                                               ; preds = %75, %69, %63, %54
  store i32 0, ptr %12, align 4
  br label %79

79:                                               ; preds = %78, %43
  call void @llvm.lifetime.end.p0(i64 8, ptr %11) #11
  call void @llvm.lifetime.end.p0(i64 8, ptr %10) #11
  %80 = load i32, ptr %12, align 4
  switch i32 %80, label %104 [
    i32 0, label %81
    i32 2, label %18
  ]

81:                                               ; preds = %79
  br label %82

82:                                               ; preds = %81, %32
  %83 = load ptr, ptr %9, align 8
  %84 = getelementptr inbounds nuw %struct.sview_job_info_t, ptr %83, i32 0, i32 2
  %85 = load i8, ptr %84, align 8, !range !18, !noundef !19
  %86 = trunc i8 %85 to i1
  br i1 %86, label %87, label %92

87:                                               ; preds = %82
  %88 = load ptr, ptr %9, align 8
  %89 = load ptr, ptr %5, align 8
  %90 = call i64 @gtk_tree_store_get_type() #12
  %91 = call ptr @g_type_check_instance_cast(ptr noundef %89, i64 noundef %90)
  call void @_update_job_record(ptr noundef %88, ptr noundef %91, ptr noundef null, i1 noundef zeroext true, i1 noundef zeroext false)
  br label %99

92:                                               ; preds = %82
  %93 = load ptr, ptr %9, align 8
  %94 = load ptr, ptr %5, align 8
  %95 = call i64 @gtk_tree_store_get_type() #12
  %96 = call ptr @g_type_check_instance_cast(ptr noundef %94, i64 noundef %95)
  call void @_append_job_record(ptr noundef %93, ptr noundef %96)
  %97 = load ptr, ptr %9, align 8
  %98 = getelementptr inbounds nuw %struct.sview_job_info_t, ptr %97, i32 0, i32 2
  store i8 1, ptr %98, align 8
  br label %99

99:                                               ; preds = %92, %87
  br label %18, !llvm.loop !31

100:                                              ; preds = %18
  %101 = load ptr, ptr %8, align 8
  call void @list_iterator_destroy(ptr noundef %101)
  %102 = load ptr, ptr %5, align 8
  call void @remove_old(ptr noundef %102, i32 noundef 91)
  %103 = load ptr, ptr %5, align 8
  store ptr %103, ptr @last_model, align 8
  store i32 1, ptr %12, align 4
  call void @llvm.lifetime.end.p0(i64 8, ptr %9) #11
  call void @llvm.lifetime.end.p0(i64 8, ptr %8) #11
  call void @llvm.lifetime.end.p0(i64 8, ptr %7) #11
  call void @llvm.lifetime.end.p0(i64 4, ptr %6) #11
  call void @llvm.lifetime.end.p0(i64 8, ptr %5) #11
  ret void

104:                                              ; preds = %79
  unreachable
}